; Function Attrs: nofree norecurse nosync nounwind memory(argmem: readwrite) uwtable
define dso_local void @blk_SHA256_Update(ptr noundef captures(none) %0, ptr noundef readonly captures(none) %1, i64 noundef %2) local_unnamed_addr #1 {
  %4 = getelementptr inbounds nuw i8, ptr %0, i64 32
  %5 = load i64, ptr %4, align 8, !tbaa !10
  %6 = trunc i64 %5 to i32
  %7 = and i32 %6, 63
  %8 = add i64 %5, %2
  store i64 %8, ptr %4, align 8, !tbaa !10
  %.not = icmp eq i32 %7, 0
  br i1 %.not, label %20, label %9

9:                                                ; preds = %3
  %10 = sub nuw nsw i32 64, %7
  %11 = zext nneg i32 %10 to i64
  %spec.select38 = tail call i64 @llvm.umin.i64(i64 %2, i64 %11)
  %spec.select = trunc nuw nsw i64 %spec.select38 to i32
  %12 = getelementptr inbounds nuw i8, ptr %0, i64 44
  %13 = and i64 %5, 63
  %14 = getelementptr inbounds nuw i8, ptr %12, i64 %13
  tail call void @llvm.memcpy.p0.p0.i64(ptr nonnull align 1 %14, ptr align 1 %1, i64 %spec.select38, i1 false)
  %15 = add i32 %spec.select, %6
  %16 = and i32 %15, 63
  %.not36 = icmp eq i32 %16, 0
  br i1 %.not36, label %17, label %.critedge

17:                                               ; preds = %9
  %18 = getelementptr inbounds nuw i8, ptr %1, i64 %spec.select38
  %19 = sub i64 %2, %spec.select38
  tail call fastcc void @blk_SHA256_Transform(ptr noundef nonnull %0, ptr noundef nonnull %12)
  br label %20

20:                                               ; preds = %17, %3
  %.032 = phi ptr [ %18, %17 ], [ %1, %3 ]
  %.031 = phi i64 [ %19, %17 ], [ %2, %3 ]
  %21 = icmp ugt i64 %.031, 63
  br i1 %21, label %.lr.ph, label %._crit_edge

.lr.ph:                                           ; preds = %20, %.lr.ph
  %.140 = phi i64 [ %23, %.lr.ph ], [ %.031, %20 ]
  %.13339 = phi ptr [ %22, %.lr.ph ], [ %.032, %20 ]
  tail call fastcc void @blk_SHA256_Transform(ptr noundef %0, ptr noundef %.13339)
  %22 = getelementptr inbounds nuw i8, ptr %.13339, i64 64
  %23 = add i64 %.140, -64
  %24 = icmp ugt i64 %23, 63
  br i1 %24, label %.lr.ph, label %._crit_edge, !llvm.loop !12

._crit_edge:                                      ; preds = %.lr.ph, %20
  %.133.lcssa = phi ptr [ %.032, %20 ], [ %22, %.lr.ph ]
  %.1.lcssa = phi i64 [ %.031, %20 ], [ %23, %.lr.ph ]
  %.not37 = icmp eq i64 %.1.lcssa, 0
  br i1 %.not37, label %.critedge, label %25

25:                                               ; preds = %._crit_edge
  %26 = getelementptr inbounds nuw i8, ptr %0, i64 44
  tail call void @llvm.memcpy.p0.p0.i64(ptr nonnull align 4 %26, ptr align 1 %.133.lcssa, i64 %.1.lcssa, i1 false)
  br label %.critedge

.critedge:                                        ; preds = %9, %._crit_edge, %25
  ret void
}